Certificate:
    Data:
        Version: 3 (0x2)
        Serial Number:
            03:41:f2:65:06:e2:44:88:d1:fc:f7:c3:e4:5c:30:6f:80:5c
    Signature Algorithm: sha256WithRSAEncryption
        Issuer: C = US, O = Let's Encrypt, CN = Let's Encrypt Authority X3
        Validity
            Not Before: Aug 21 21:00:36 2018 GMT
            Not After : Nov 19 21:00:36 2018 GMT
        Subject: CN = srec-shb.cf
        Subject Public Key Info:
            Public Key Algorithm: rsaEncryption
                Public-Key: (2048 bit)
                Modulus:
                    00:ad:89:b1:99:70:ad:a9:00:6d:34:e9:41:06:ba:
                    9a:3f:e5:c8:31:62:0c:85:c5:32:94:4d:0d:48:e4:
                    c4:74:69:8a:56:43:ea:1a:44:f7:f5:20:fd:84:8a:
                    d4:f6:ff:d7:72:cc:46:e7:dc:d6:0e:10:46:c7:5e:
                    17:8e:21:d2:db:84:9d:d0:2b:2b:df:b0:7f:10:06:
                    b0:99:e1:cc:d1:ce:cb:41:94:3d:54:e5:a4:69:ac:
                    10:7d:11:6d:d3:88:22:5f:18:e8:b8:a1:0b:7f:39:
                    da:41:f7:30:99:ed:15:58:73:68:33:06:c8:f8:1b:
                    c5:09:88:10:c8:5e:38:0c:85:5c:79:b6:48:eb:7f:
                    17:9a:07:48:a5:7b:e9:ff:79:27:da:05:9f:a4:28:
                    a4:0e:de:d1:8a:e3:05:2c:66:53:96:40:84:65:d7:
                    55:e9:6d:a1:80:66:1e:29:f8:ca:3f:92:50:9d:0d:
                    84:f4:c3:ae:40:e7:87:ab:d2:47:40:d1:37:cc:06:
                    47:a9:04:e7:e2:8a:a1:04:c7:9b:da:da:f5:f3:e0:
                    52:64:74:f8:76:7e:6f:80:6b:d1:10:e0:56:fc:7f:
                    aa:e9:bf:9e:80:5e:75:4b:a7:88:85:ac:ca:7d:0a:
                    62:28:27:c5:f9:ea:cb:7e:f0:33:62:cb:98:f9:d8:
                    f7:2b
                Exponent: 65537 (0x10001)
        X509v3 extensions:
            X509v3 Key Usage: critical
                Digital Signature, Key Encipherment
            X509v3 Extended Key Usage: 
                TLS Web Server Authentication, TLS Web Client Authentication
            X509v3 Basic Constraints: critical
                CA:FALSE
            X509v3 Subject Key Identifier: 
                A2:62:8C:D6:70:48:B1:30:13:6F:6A:F8:D8:FC:F5:F9:C6:CF:99:DE
            X509v3 Authority Key Identifier: 
                keyid:A8:4A:6A:63:04:7D:DD:BA:E6:D1:39:B7:A6:45:65:EF:F3:A8:EC:A1

            Authority Information Access: 
                OCSP - URI:http://ocsp.int-x3.letsencrypt.org
                CA Issuers - URI:http://cert.int-x3.letsencrypt.org/

            X509v3 Subject Alternative Name: 
                DNS:srec-shb.cf, DNS:www.srec-shb.cf
            X509v3 Certificate Policies: 
                Policy: 2.23.140.1.2.1
                Policy: 1.3.6.1.4.1.44947.1.1.1
                  CPS: http://cps.letsencrypt.org
                  User Notice:
                    Explicit Text: This Certificate may only be relied upon by Relying Parties and only in accordance with the Certificate Policy found at https://letsencrypt.org/repository/

            CT Precertificate SCTs: 
                Signed Certificate Timestamp:
                    Version   : v1 (0x0)
                    Log ID    : C1:16:4A:E0:A7:72:D2:D4:39:2D:C8:0A:C1:07:70:D4:
                                F0:C4:9B:DE:99:1A:48:40:C1:FA:07:51:64:F6:33:60
                    Timestamp : Aug 21 22:00:36.196 2018 GMT
                    Extensions: none
                    Signature : ecdsa-with-SHA256
                                30:45:02:20:40:EE:33:82:76:63:B3:B1:0F:AF:CA:DD:
                                A5:EE:1B:CA:32:45:EB:05:2A:BA:3F:67:6F:5E:0B:7C:
                                AD:B5:77:37:02:21:00:F2:74:E5:9F:FA:5F:6C:CC:87:
                                FF:39:D3:21:51:53:D5:DD:36:5B:EA:66:2F:42:9D:9E:
                                FD:64:1E:77:3D:AC:B5
                Signed Certificate Timestamp:
                    Version   : v1 (0x0)
                    Log ID    : 29:3C:51:96:54:C8:39:65:BA:AA:50:FC:58:07:D4:B7:
                                6F:BF:58:7A:29:72:DC:A4:C3:0C:F4:E5:45:47:F4:78
                    Timestamp : Aug 21 22:00:36.294 2018 GMT
                    Extensions: none
                    Signature : ecdsa-with-SHA256
                                30:46:02:21:00:92:80:E3:DE:61:51:03:91:3D:E0:41:
                                BE:F9:22:CD:26:55:91:C3:28:44:FC:32:62:D3:C9:6B:
                                DF:F2:BB:36:12:02:21:00:EA:EC:5E:40:7B:FB:EA:50:
                                3E:90:0A:75:08:2D:ED:7A:7F:BB:F1:C2:BA:26:8C:24:
                                0F:05:5F:38:93:3A:25:49
    Signature Algorithm: sha256WithRSAEncryption
         16:f7:be:6a:55:2a:44:76:ab:1e:38:07:67:85:e6:a6:98:c4:
         5b:a0:5e:f5:17:b5:fa:30:18:06:fe:8c:4d:b3:ab:d2:85:e2:
         c4:fe:6d:d4:b7:ef:e0:fa:6c:46:19:05:26:c6:d8:ac:dd:b6:
         b2:4c:4c:32:41:56:a6:0d:86:44:ac:c6:60:89:2c:d5:d3:4d:
         c8:05:71:7c:50:52:d2:38:6f:8f:d6:c8:d5:15:aa:e6:d8:d7:
         72:c1:76:d7:35:c4:d7:41:98:20:ba:53:0c:55:ed:55:20:a2:
         de:c0:3f:15:fa:db:39:e7:24:c8:c1:d1:c4:3a:ac:9d:9b:37:
         2b:e8:8b:35:bf:cd:54:03:1f:46:51:11:87:ce:38:22:c1:74:
         f3:6e:39:2b:ef:68:3e:cc:0c:ed:46:3a:72:58:2b:28:d2:88:
         ce:4c:31:25:5b:0d:53:75:3b:76:70:77:75:8f:4a:8a:7a:0e:
         1d:38:fb:6c:c9:97:60:35:6d:43:c4:08:c0:a3:f2:ef:d5:3d:
         1c:78:93:13:84:a7:3c:e8:2d:ea:0b:fb:3d:42:b8:1b:b4:68:
         0b:93:03:88:76:19:81:fc:4c:a8:e1:75:9c:e7:01:5e:97:78:
         59:50:8a:5a:22:86:8f:b2:48:92:3c:63:a1:1d:9f:54:a9:01:
         7f:c8:69:78
-----BEGIN CERTIFICATE-----
MIIGEzCCBPugAwIBAgISA0HyZQbiRIjR/PfD5Fwwb4BcMA0GCSqGSIb3DQEBCwUA
MEoxCzAJBgNVBAYTAlVTMRYwFAYDVQQKEw1MZXQncyBFbmNyeXB0MSMwIQYDVQQD
ExpMZXQncyBFbmNyeXB0IEF1dGhvcml0eSBYMzAeFw0xODA4MjEyMTAwMzZaFw0x
ODExMTkyMTAwMzZaMBYxFDASBgNVBAMTC3NyZWMtc2hiLmNmMIIBIjANBgkqhkiG
9w0BAQEFAAOCAQ8AMIIBCgKCAQEArYmxmXCtqQBtNOlBBrqaP+XIMWIMhcUylE0N
SOTEdGmKVkPqGkT39SD9hIrU9v/XcsxG59zWDhBGx14XjiHS24Sd0Csr37B/EAaw
meHM0c7LQZQ9VOWkaawQfRFt04giXxjouKELfznaQfcwme0VWHNoMwbI+BvFCYgQ
yF44DIVcebZI638XmgdIpXvp/3kn2gWfpCikDt7RiuMFLGZTlkCEZddV6W2hgGYe
KfjKP5JQnQ2E9MOuQOeHq9JHQNE3zAZHqQTn4oqhBMeb2tr18+BSZHT4dn5vgGvR
EOBW/H+q6b+egF51S6eIhazKfQpiKCfF+erLfvAzYsuY+dj3KwIDAQABo4IDJTCC
AyEwDgYDVR0PAQH/BAQDAgWgMB0GA1UdJQQWMBQGCCsGAQUFBwMBBggrBgEFBQcD
AjAMBgNVHRMBAf8EAjAAMB0GA1UdDgQWBBSiYozWcEixMBNvavjY/PX5xs+Z3jAf
BgNVHSMEGDAWgBSoSmpjBH3duubRObemRWXv86jsoTBvBggrBgEFBQcBAQRjMGEw
LgYIKwYBBQUHMAGGImh0dHA6Ly9vY3NwLmludC14My5sZXRzZW5jcnlwdC5vcmcw
LwYIKwYBBQUHMAKGI2h0dHA6Ly9jZXJ0LmludC14My5sZXRzZW5jcnlwdC5vcmcv
MCcGA1UdEQQgMB6CC3NyZWMtc2hiLmNmgg93d3cuc3JlYy1zaGIuY2Ywgf4GA1Ud
IASB9jCB8zAIBgZngQwBAgEwgeYGCysGAQQBgt8TAQEBMIHWMCYGCCsGAQUFBwIB
FhpodHRwOi8vY3BzLmxldHNlbmNyeXB0Lm9yZzCBqwYIKwYBBQUHAgIwgZ4MgZtU
aGlzIENlcnRpZmljYXRlIG1heSBvbmx5IGJlIHJlbGllZCB1cG9uIGJ5IFJlbHlp
bmcgUGFydGllcyBhbmQgb25seSBpbiBhY2NvcmRhbmNlIHdpdGggdGhlIENlcnRp
ZmljYXRlIFBvbGljeSBmb3VuZCBhdCBodHRwczovL2xldHNlbmNyeXB0Lm9yZy9y
ZXBvc2l0b3J5LzCCAQUGCisGAQQB1nkCBAIEgfYEgfMA8QB2AMEWSuCnctLUOS3I
CsEHcNTwxJvemRpIQMH6B1Fk9jNgAAABZV6A/GQAAAQDAEcwRQIgQO4zgnZjs7EP
r8rdpe4byjJF6wUquj9nb14LfK21dzcCIQDydOWf+l9szIf/OdMhUVPV3TZb6mYv
Qp2e/WQedz2stQB3ACk8UZZUyDlluqpQ/FgH1Ldvv1h6KXLcpMMM9OVFR/R4AAAB
ZV6A/MYAAAQDAEgwRgIhAJKA495hUQORPeBBvvkizSZVkcMoRPwyYtPJa9/yuzYS
AiEA6uxeQHv76lA+kAp1CC3ten+78cK6JowkDwVfOJM6JUkwDQYJKoZIhvcNAQEL
BQADggEBABb3vmpVKkR2qx44B2eF5qaYxFugXvUXtfowGAb+jE2zq9KF4sT+bdS3
7+D6bEYZBSbG2KzdtrJMTDJBVqYNhkSsxmCJLNXTTcgFcXxQUtI4b4/WyNUVqubY
13LBdtc1xNdBmCC6UwxV7VUgot7APxX62znnJMjB0cQ6rJ2bNyvoizW/zVQDH0ZR
EYfOOCLBdPNuOSvvaD7MDO1GOnJYKyjSiM5MMSVbDVN1O3Zwd3WPSop6Dh04+2zJ
l2A1bUPECMCj8u/VPRx4kxOEpzzoLeoL+z1CuBu0aAuTA4h2GYH8TKjhdZznAV6X
eFlQiloiho+ySJI8Y6Edn1SpAX/IaXg=
-----END CERTIFICATE-----
